target datalayout = "e-m:e-p270:32:32-p271:32:32-p272:64:64-i64:64-i128:128-f80:128-n8:16:32:64-S128"
target triple = "x86_64-pc-linux-gnu"

%class.LogSelection = type { i64, [5 x i32], i8, i32, i64 }

@_ZN12LogSelection7InvalidE = hidden global %class.LogSelection zeroinitializer, align 8
@.str.11 = private unnamed_addr constant [37 x i8] c"Invalid level '%s' in log selection.\00", align 1
@.str.12 = private unnamed_addr constant [20 x i8] c" Did you mean '%s'?\00", align 1
@.str.13 = private unnamed_addr constant [4 x i8] c"all\00", align 1
@.str.14 = private unnamed_addr constant [35 x i8] c"Invalid tag '%s' in log selection.\00", align 1
@.str.15 = private unnamed_addr constant [68 x i8] c"Too many tags in log selection '%s' (can only have up to %lu tags).\00", align 1
@.str.16 = private unnamed_addr constant [45 x i8] c"Log selection contains duplicates of tag %s.\00", align 1
@_ZN6LogTag5_nameE = external constant [0 x ptr], align 8
@_ZN8LogLevel5_nameE = external global [0 x ptr], align 8
@_ZN12LogSelectionC1EPKN6LogTag4typeEbN8LogLevel4typeE = hidden unnamed_addr alias void (ptr, ptr, i1, i32), ptr @_ZN12LogSelectionC2EPKN6LogTag4typeEbN8LogLevel4typeE

; Function Attrs: mustprogress nounwind uwtable
define linkonce_odr hidden noundef ptr @_ZN6LogTag4nameENS_4typeE(i32 noundef %0) #1 comdat align 2 {
  %2 = alloca i32, align 4
  store i32 %0, ptr %2, align 4
  %3 = load i32, ptr %2, align 4
  %4 = zext i32 %3 to i64
  %5 = getelementptr inbounds [0 x ptr], ptr @_ZN6LogTag5_nameE, i64 0, i64 %4
  %6 = load ptr, ptr %5, align 8
  ret ptr %6
}

; Function Attrs: mustprogress nounwind uwtable
define linkonce_odr hidden noundef ptr @_ZN8LogLevel4nameENS_4typeE(i32 noundef %0) #1 comdat align 2 {
  %2 = alloca i32, align 4
  store i32 %0, ptr %2, align 4
  %3 = load i32, ptr %2, align 4
  %4 = zext i32 %3 to i64
  %5 = getelementptr inbounds [0 x ptr], ptr @_ZN8LogLevel5_nameE, i64 0, i64 %4
  %6 = load ptr, ptr %5, align 8
  ret ptr %6
}

; Function Attrs: mustprogress nounwind uwtable
define internal void @_ZL14parse_internalPcP12outputStream(ptr dead_on_unwind noalias writable sret(%class.LogSelection) align 8 %0, ptr noundef %1, ptr noundef %2) #1 {
  %4 = alloca ptr, align 8
  %5 = alloca ptr, align 8
  %6 = alloca i32, align 4
  %7 = alloca ptr, align 8
  %8 = alloca ptr, align 8
  %9 = alloca i32, align 4
  %10 = alloca i64, align 8
  %11 = alloca [5 x i32], align 16
  %12 = alloca i8, align 1
  %13 = alloca ptr, align 8
  %14 = alloca ptr, align 8
  %15 = alloca ptr, align 8
  %16 = alloca i32, align 4
  %17 = alloca i32, align 4
  %18 = alloca i64, align 8
  %19 = alloca i64, align 8
  store ptr %1, ptr %4, align 8
  store ptr %2, ptr %5, align 8
  store i32 3, ptr %6, align 4
  %20 = load ptr, ptr %4, align 8
  %21 = call noundef ptr @strchr(ptr noundef %20, i32 noundef 61) #8
  store ptr %21, ptr %7, align 8
  %22 = load ptr, ptr %7, align 8
  %23 = icmp ne ptr %22, null
  br i1 %23, label %24, label %50

24:                                               ; preds = %3
  %25 = load ptr, ptr %7, align 8
  %26 = getelementptr inbounds i8, ptr %25, i64 1
  store ptr %26, ptr %8, align 8
  %27 = load ptr, ptr %8, align 8
  %28 = call noundef i32 @_ZN8LogLevel11from_stringEPKc(ptr noundef %27)
  store i32 %28, ptr %6, align 4
  %29 = load i32, ptr %6, align 4
  %30 = icmp eq i32 %29, 7
  br i1 %30, label %31, label %48

31:                                               ; preds = %24
  %32 = load ptr, ptr %5, align 8
  %33 = icmp ne ptr %32, null
  br i1 %33, label %34, label %47

34:                                               ; preds = %31
  %35 = load ptr, ptr %5, align 8
  %36 = load ptr, ptr %8, align 8
  call void (ptr, ptr, ...) @_ZN12outputStream5printEPKcz(ptr noundef nonnull align 8 dereferenceable(56) %35, ptr noundef @.str.11, ptr noundef %36)
  %37 = load ptr, ptr %8, align 8
  %38 = call noundef i32 @_ZN8LogLevel11fuzzy_matchEPKc(ptr noundef %37)
  store i32 %38, ptr %9, align 4
  %39 = load i32, ptr %9, align 4
  %40 = icmp ne i32 %39, 7
  br i1 %40, label %41, label %45

41:                                               ; preds = %34
  %42 = load ptr, ptr %5, align 8
  %43 = load i32, ptr %9, align 4
  %44 = call noundef ptr @_ZN8LogLevel4nameENS_4typeE(i32 noundef %43)
  call void (ptr, ptr, ...) @_ZN12outputStream5printEPKcz(ptr noundef nonnull align 8 dereferenceable(56) %42, ptr noundef @.str.12, ptr noundef %44)
  br label %45

45:                                               ; preds = %41, %34
  %46 = load ptr, ptr %5, align 8
  call void @_ZN12outputStream2crEv(ptr noundef nonnull align 8 dereferenceable(56) %46)
  br label %47

47:                                               ; preds = %45, %31
  call void @llvm.memcpy.p0.p0.i64(ptr align 8 %0, ptr align 8 @_ZN12LogSelection7InvalidE, i64 48, i1 false)
  br label %166

48:                                               ; preds = %24
  %49 = load ptr, ptr %7, align 8
  store i8 0, ptr %49, align 1
  br label %50

50:                                               ; preds = %48, %3
  store i64 0, ptr %10, align 8
  call void @llvm.memset.p0.i64(ptr align 16 %11, i8 0, i64 20, i1 false)
  %51 = load ptr, ptr %4, align 8
  %52 = call i32 @strcmp(ptr noundef %51, ptr noundef @.str.13) #8
  %53 = icmp eq i32 %52, 0
  br i1 %53, label %54, label %57

54:                                               ; preds = %50
  %55 = getelementptr inbounds [5 x i32], ptr %11, i64 0, i64 0
  %56 = load i32, ptr %6, align 4
  call void @_ZN12LogSelectionC1EPKN6LogTag4typeEbN8LogLevel4typeE(ptr noundef nonnull align 8 dereferenceable(48) %0, ptr noundef %55, i1 noundef zeroext true, i32 noundef %56)
  br label %166

57:                                               ; preds = %50
  store i8 0, ptr %12, align 1
  %58 = load ptr, ptr %4, align 8
  %59 = call noundef ptr @strchr(ptr noundef %58, i32 noundef 42) #8
  store ptr %59, ptr %13, align 8
  %60 = load ptr, ptr %13, align 8
  %61 = icmp ne ptr %60, null
  br i1 %61, label %62, label %70

62:                                               ; preds = %57
  %63 = load ptr, ptr %13, align 8
  %64 = getelementptr inbounds i8, ptr %63, i64 1
  %65 = load i8, ptr %64, align 1
  %66 = sext i8 %65 to i32
  %67 = icmp eq i32 %66, 0
  br i1 %67, label %68, label %70

68:                                               ; preds = %62
  store i8 1, ptr %12, align 1
  %69 = load ptr, ptr %13, align 8
  store i8 0, ptr %69, align 1
  br label %70

70:                                               ; preds = %68, %62, %57
  %71 = load ptr, ptr %4, align 8
  store ptr %71, ptr %15, align 8
  br label %72

72:                                               ; preds = %118, %70
  %73 = load ptr, ptr %15, align 8
  %74 = call noundef ptr @strchr(ptr noundef %73, i32 noundef 43) #8
  store ptr %74, ptr %14, align 8
  %75 = load ptr, ptr %14, align 8
  %76 = icmp ne ptr %75, null
  br i1 %76, label %77, label %79

77:                                               ; preds = %72
  %78 = load ptr, ptr %14, align 8
  store i8 0, ptr %78, align 1
  br label %79

79:                                               ; preds = %77, %72
  %80 = load ptr, ptr %15, align 8
  %81 = call noundef i32 @_ZN6LogTag11from_stringEPKc(ptr noundef %80)
  store i32 %81, ptr %16, align 4
  %82 = load i32, ptr %16, align 4
  %83 = icmp eq i32 %82, 0
  br i1 %83, label %84, label %101

84:                                               ; preds = %79
  %85 = load ptr, ptr %5, align 8
  %86 = icmp ne ptr %85, null
  br i1 %86, label %87, label %100

87:                                               ; preds = %84
  %88 = load ptr, ptr %5, align 8
  %89 = load ptr, ptr %15, align 8
  call void (ptr, ptr, ...) @_ZN12outputStream5printEPKcz(ptr noundef nonnull align 8 dereferenceable(56) %88, ptr noundef @.str.14, ptr noundef %89)
  %90 = load ptr, ptr %15, align 8
  %91 = call noundef i32 @_ZN6LogTag11fuzzy_matchEPKc(ptr noundef %90)
  store i32 %91, ptr %17, align 4
  %92 = load i32, ptr %17, align 4
  %93 = icmp ne i32 %92, 0
  br i1 %93, label %94, label %98

94:                                               ; preds = %87
  %95 = load ptr, ptr %5, align 8
  %96 = load i32, ptr %17, align 4
  %97 = call noundef ptr @_ZN6LogTag4nameENS_4typeE(i32 noundef %96)
  call void (ptr, ptr, ...) @_ZN12outputStream5printEPKcz(ptr noundef nonnull align 8 dereferenceable(56) %95, ptr noundef @.str.12, ptr noundef %97)
  br label %98

98:                                               ; preds = %94, %87
  %99 = load ptr, ptr %5, align 8
  call void @_ZN12outputStream2crEv(ptr noundef nonnull align 8 dereferenceable(56) %99)
  br label %100

100:                                              ; preds = %98, %84
  call void @llvm.memcpy.p0.p0.i64(ptr align 8 %0, ptr align 8 @_ZN12LogSelection7InvalidE, i64 48, i1 false)
  br label %166

101:                                              ; preds = %79
  %102 = load i64, ptr %10, align 8
  %103 = icmp eq i64 %102, 5
  br i1 %103, label %104, label %111

104:                                              ; preds = %101
  %105 = load ptr, ptr %5, align 8
  %106 = icmp ne ptr %105, null
  br i1 %106, label %107, label %110

107:                                              ; preds = %104
  %108 = load ptr, ptr %5, align 8
  %109 = load ptr, ptr %4, align 8
  call void (ptr, ptr, ...) @_ZN12outputStream8print_crEPKcz(ptr noundef nonnull align 8 dereferenceable(56) %108, ptr noundef @.str.15, ptr noundef %109, i64 noundef 5)
  br label %110

110:                                              ; preds = %107, %104
  call void @llvm.memcpy.p0.p0.i64(ptr align 8 %0, ptr align 8 @_ZN12LogSelection7InvalidE, i64 48, i1 false)
  br label %166

111:                                              ; preds = %101
  %112 = load i32, ptr %16, align 4
  %113 = load i64, ptr %10, align 8
  %114 = add i64 %113, 1
  store i64 %114, ptr %10, align 8
  %115 = getelementptr inbounds [5 x i32], ptr %11, i64 0, i64 %113
  store i32 %112, ptr %115, align 4
  %116 = load ptr, ptr %14, align 8
  %117 = getelementptr inbounds i8, ptr %116, i64 1
  store ptr %117, ptr %15, align 8
  br label %118

118:                                              ; preds = %111
  %119 = load ptr, ptr %14, align 8
  %120 = icmp ne ptr %119, null
  br i1 %120, label %72, label %121, !llvm.loop !11

121:                                              ; preds = %118
  store i64 0, ptr %18, align 8
  br label %122

122:                                              ; preds = %158, %121
  %123 = load i64, ptr %18, align 8
  %124 = load i64, ptr %10, align 8
  %125 = icmp ult i64 %123, %124
  br i1 %125, label %126, label %161

126:                                              ; preds = %122
  store i64 0, ptr %19, align 8
  br label %127

127:                                              ; preds = %154, %126
  %128 = load i64, ptr %19, align 8
  %129 = load i64, ptr %10, align 8
  %130 = icmp ult i64 %128, %129
  br i1 %130, label %131, label %157

131:                                              ; preds = %127
  %132 = load i64, ptr %18, align 8
  %133 = load i64, ptr %19, align 8
  %134 = icmp ne i64 %132, %133
  br i1 %134, label %135, label %153

135:                                              ; preds = %131
  %136 = load i64, ptr %18, align 8
  %137 = getelementptr inbounds [5 x i32], ptr %11, i64 0, i64 %136
  %138 = load i32, ptr %137, align 4
  %139 = load i64, ptr %19, align 8
  %140 = getelementptr inbounds [5 x i32], ptr %11, i64 0, i64 %139
  %141 = load i32, ptr %140, align 4
  %142 = icmp eq i32 %138, %141
  br i1 %142, label %143, label %153

143:                                              ; preds = %135
  %144 = load ptr, ptr %5, align 8
  %145 = icmp ne ptr %144, null
  br i1 %145, label %146, label %152

146:                                              ; preds = %143
  %147 = load ptr, ptr %5, align 8
  %148 = load i64, ptr %18, align 8
  %149 = getelementptr inbounds [5 x i32], ptr %11, i64 0, i64 %148
  %150 = load i32, ptr %149, align 4
  %151 = call noundef ptr @_ZN6LogTag4nameENS_4typeE(i32 noundef %150)
  call void (ptr, ptr, ...) @_ZN12outputStream8print_crEPKcz(ptr noundef nonnull align 8 dereferenceable(56) %147, ptr noundef @.str.16, ptr noundef %151)
  br label %152

152:                                              ; preds = %146, %143
  call void @llvm.memcpy.p0.p0.i64(ptr align 8 %0, ptr align 8 @_ZN12LogSelection7InvalidE, i64 48, i1 false)
  br label %166

153:                                              ; preds = %135, %131
  br label %154

154:                                              ; preds = %153
  %155 = load i64, ptr %19, align 8
  %156 = add i64 %155, 1
  store i64 %156, ptr %19, align 8
  br label %127, !llvm.loop !12

157:                                              ; preds = %127
  br label %158

158:                                              ; preds = %157
  %159 = load i64, ptr %18, align 8
  %160 = add i64 %159, 1
  store i64 %160, ptr %18, align 8
  br label %122, !llvm.loop !13

161:                                              ; preds = %122
  %162 = getelementptr inbounds [5 x i32], ptr %11, i64 0, i64 0
  %163 = load i8, ptr %12, align 1
  %164 = trunc i8 %163 to i1
  %165 = load i32, ptr %6, align 4
  call void @_ZN12LogSelectionC1EPKN6LogTag4typeEbN8LogLevel4typeE(ptr noundef nonnull align 8 dereferenceable(48) %0, ptr noundef %162, i1 noundef zeroext %164, i32 noundef %165)
  br label %166

166:                                              ; preds = %161, %152, %110, %100, %54, %47
  ret void
}

; Function Attrs: mustprogress nounwind uwtable
define hidden void @_ZN12LogSelection5parseEPKcP12outputStream(ptr dead_on_unwind noalias writable sret(%class.LogSelection) align 8 %0, ptr noundef %1, ptr noundef %2) #1 align 2 {
  %4 = alloca ptr, align 8
  %5 = alloca ptr, align 8
  %6 = alloca ptr, align 8
  store ptr %1, ptr %4, align 8
  store ptr %2, ptr %5, align 8
  %7 = load ptr, ptr %4, align 8
  %8 = call noundef ptr @_ZN2os16strdup_check_oomEPKc8MEMFLAGS(ptr noundef %7, i8 noundef zeroext 17)
  store ptr %8, ptr %6, align 8
  %9 = load ptr, ptr %6, align 8
  %10 = load ptr, ptr %5, align 8
  call void @_ZL14parse_internalPcP12outputStream(ptr dead_on_unwind writable sret(%class.LogSelection) align 8 %0, ptr noundef %9, ptr noundef %10)
  %11 = load ptr, ptr %6, align 8
  call void @_ZN2os4freeEPv(ptr noundef %11)
  ret void
}