; Function Attrs: mustprogress nounwind uwtable
define hidden void @_ZN12LogSelection5parseEPKcP12outputStream(ptr dead_on_unwind noalias nocapture writable sret(%class.LogSelection) align 8 %0, ptr noundef %1, ptr noundef %2) local_unnamed_addr #3 align 2 {
  %4 = alloca [5 x i32], align 16
  %5 = tail call noundef ptr @_ZN2os16strdup_check_oomEPKc8MEMFLAGS(ptr noundef %1, i8 noundef zeroext 17) #10
  call void @llvm.lifetime.start.p0(i64 20, ptr nonnull %4)
  %6 = tail call noundef ptr @strchr(ptr noundef nonnull dereferenceable(1) %5, i32 noundef 61) #11, !noalias !12
  %.not.i = icmp eq ptr %6, null
  br i1 %.not.i, label %21, label %7

7:                                                ; preds = %3
  %8 = getelementptr inbounds i8, ptr %6, i64 1
  %9 = tail call noundef i32 @_ZN8LogLevel11from_stringEPKc(ptr noundef nonnull %8) #10, !noalias !12
  %10 = icmp eq i32 %9, 7
  br i1 %10, label %11, label %20

11:                                               ; preds = %7
  %.not78.i = icmp eq ptr %2, null
  br i1 %.not78.i, label %19, label %12

12:                                               ; preds = %11
  tail call void (ptr, ptr, ...) @_ZN12outputStream5printEPKcz(ptr noundef nonnull align 8 dereferenceable(56) %2, ptr noundef nonnull @.str.11, ptr noundef nonnull %8) #10, !noalias !12
  %13 = tail call noundef i32 @_ZN8LogLevel11fuzzy_matchEPKc(ptr noundef nonnull %8) #10, !noalias !12
  %.not79.i = icmp eq i32 %13, 7
  br i1 %.not79.i, label %18, label %14

14:                                               ; preds = %12
  %15 = zext i32 %13 to i64
  %16 = getelementptr inbounds [0 x ptr], ptr @_ZN8LogLevel5_nameE, i64 0, i64 %15
  %17 = load ptr, ptr %16, align 8, !noalias !12
  tail call void (ptr, ptr, ...) @_ZN12outputStream5printEPKcz(ptr noundef nonnull align 8 dereferenceable(56) %2, ptr noundef nonnull @.str.12, ptr noundef %17) #10, !noalias !12
  br label %18

18:                                               ; preds = %14, %12
  tail call void @_ZN12outputStream2crEv(ptr noundef nonnull align 8 dereferenceable(56) %2) #10, !noalias !12
  br label %19

19:                                               ; preds = %18, %11
  tail call void @llvm.memcpy.p0.p0.i64(ptr noundef nonnull align 8 dereferenceable(48) %0, ptr noundef nonnull align 8 dereferenceable(48) @_ZN12LogSelection7InvalidE, i64 48, i1 false)
  br label %_ZL14parse_internalPcP12outputStream.exit

20:                                               ; preds = %7
  store i8 0, ptr %6, align 1, !noalias !12
  br label %21

21:                                               ; preds = %20, %3
  %.057.i = phi i32 [ %9, %20 ], [ 3, %3 ]
  call void @llvm.memset.p0.i64(ptr noundef nonnull align 16 dereferenceable(20) %4, i8 0, i64 20, i1 false), !noalias !12
  %22 = tail call i32 @strcmp(ptr noundef nonnull dereferenceable(1) %5, ptr noundef nonnull dereferenceable(4) @.str.13) #11, !noalias !12
  %23 = icmp eq i32 %22, 0
  br i1 %23, label %24, label %25

24:                                               ; preds = %21
  call void @_ZN12LogSelectionC2EPKN6LogTag4typeEbN8LogLevel4typeE(ptr noundef nonnull align 8 dereferenceable(48) %0, ptr noundef nonnull %4, i1 noundef zeroext true, i32 noundef %.057.i)
  br label %_ZL14parse_internalPcP12outputStream.exit

25:                                               ; preds = %21
  %26 = tail call noundef ptr @strchr(ptr noundef nonnull dereferenceable(1) %5, i32 noundef 42) #11, !noalias !12
  %.not71.i = icmp eq ptr %26, null
  br i1 %.not71.i, label %32, label %27

27:                                               ; preds = %25
  %28 = getelementptr inbounds i8, ptr %26, i64 1
  %29 = load i8, ptr %28, align 1, !noalias !12
  %30 = icmp eq i8 %29, 0
  br i1 %30, label %31, label %32

31:                                               ; preds = %27
  store i8 0, ptr %26, align 1, !noalias !12
  br label %32

32:                                               ; preds = %31, %27, %25
  %.060.i = phi i1 [ true, %31 ], [ false, %27 ], [ false, %25 ]
  br label %33

33:                                               ; preds = %53, %32
  %indvars.iv.i = phi i64 [ %indvars.iv.next.i, %53 ], [ 1, %32 ]
  %.059.i = phi ptr [ %56, %53 ], [ %5, %32 ]
  %.058.i = phi i64 [ %54, %53 ], [ 0, %32 ]
  %34 = tail call noundef ptr @strchr(ptr noundef nonnull dereferenceable(1) %.059.i, i32 noundef 43) #11, !noalias !12
  %.not72.i = icmp eq ptr %34, null
  br i1 %.not72.i, label %36, label %35

35:                                               ; preds = %33
  store i8 0, ptr %34, align 1, !noalias !12
  br label %36

36:                                               ; preds = %35, %33
  %37 = tail call noundef i32 @_ZN6LogTag11from_stringEPKc(ptr noundef %.059.i) #10, !noalias !12
  %38 = icmp eq i32 %37, 0
  br i1 %38, label %39, label %48

39:                                               ; preds = %36
  %.not76.i = icmp eq ptr %2, null
  br i1 %.not76.i, label %47, label %40

40:                                               ; preds = %39
  tail call void (ptr, ptr, ...) @_ZN12outputStream5printEPKcz(ptr noundef nonnull align 8 dereferenceable(56) %2, ptr noundef nonnull @.str.14, ptr noundef %.059.i) #10, !noalias !12
  %41 = tail call noundef i32 @_ZN6LogTag11fuzzy_matchEPKc(ptr noundef %.059.i) #10, !noalias !12
  %.not77.i = icmp eq i32 %41, 0
  br i1 %.not77.i, label %46, label %42

42:                                               ; preds = %40
  %43 = zext i32 %41 to i64
  %44 = getelementptr inbounds [0 x ptr], ptr @_ZN6LogTag5_nameE, i64 0, i64 %43
  %45 = load ptr, ptr %44, align 8, !noalias !12
  tail call void (ptr, ptr, ...) @_ZN12outputStream5printEPKcz(ptr noundef nonnull align 8 dereferenceable(56) %2, ptr noundef nonnull @.str.12, ptr noundef %45) #10, !noalias !12
  br label %46

46:                                               ; preds = %42, %40
  tail call void @_ZN12outputStream2crEv(ptr noundef nonnull align 8 dereferenceable(56) %2) #10, !noalias !12
  br label %47

47:                                               ; preds = %46, %39
  tail call void @llvm.memcpy.p0.p0.i64(ptr noundef nonnull align 8 dereferenceable(48) %0, ptr noundef nonnull align 8 dereferenceable(48) @_ZN12LogSelection7InvalidE, i64 48, i1 false)
  br label %_ZL14parse_internalPcP12outputStream.exit

48:                                               ; preds = %36
  %49 = icmp eq i64 %.058.i, 5
  br i1 %49, label %50, label %53

50:                                               ; preds = %48
  %.not75.i = icmp eq ptr %2, null
  br i1 %.not75.i, label %52, label %51

51:                                               ; preds = %50
  tail call void (ptr, ptr, ...) @_ZN12outputStream8print_crEPKcz(ptr noundef nonnull align 8 dereferenceable(56) %2, ptr noundef nonnull @.str.15, ptr noundef %5, i64 noundef 5) #10, !noalias !12
  br label %52

52:                                               ; preds = %51, %50
  tail call void @llvm.memcpy.p0.p0.i64(ptr noundef nonnull align 8 dereferenceable(48) %0, ptr noundef nonnull align 8 dereferenceable(48) @_ZN12LogSelection7InvalidE, i64 48, i1 false)
  br label %_ZL14parse_internalPcP12outputStream.exit

53:                                               ; preds = %48
  %54 = add nuw nsw i64 %.058.i, 1
  %55 = getelementptr inbounds [5 x i32], ptr %4, i64 0, i64 %.058.i
  store i32 %37, ptr %55, align 4, !noalias !12
  %56 = getelementptr inbounds i8, ptr %34, i64 1
  %indvars.iv.next.i = add nuw nsw i64 %indvars.iv.i, 1
  br i1 %.not72.i, label %.preheader.i, label %33, !llvm.loop !15

.preheader.i:                                     ; preds = %53, %72
  %.05685.i = phi i64 [ %73, %72 ], [ 0, %53 ]
  %57 = getelementptr inbounds [5 x i32], ptr %4, i64 0, i64 %.05685.i
  br label %58

58:                                               ; preds = %70, %.preheader.i
  %.084.i = phi i64 [ 0, %.preheader.i ], [ %71, %70 ]
  %.not73.i = icmp eq i64 %.05685.i, %.084.i
  br i1 %.not73.i, label %70, label %59

59:                                               ; preds = %58
  %60 = load i32, ptr %57, align 4, !noalias !12
  %61 = getelementptr inbounds [5 x i32], ptr %4, i64 0, i64 %.084.i
  %62 = load i32, ptr %61, align 4, !noalias !12
  %63 = icmp eq i32 %60, %62
  br i1 %63, label %64, label %70

64:                                               ; preds = %59
  %.not74.i = icmp eq ptr %2, null
  br i1 %.not74.i, label %69, label %65

65:                                               ; preds = %64
  %66 = zext i32 %60 to i64
  %67 = getelementptr inbounds [0 x ptr], ptr @_ZN6LogTag5_nameE, i64 0, i64 %66
  %68 = load ptr, ptr %67, align 8, !noalias !12
  tail call void (ptr, ptr, ...) @_ZN12outputStream8print_crEPKcz(ptr noundef nonnull align 8 dereferenceable(56) %2, ptr noundef nonnull @.str.16, ptr noundef %68) #10, !noalias !12
  br label %69

69:                                               ; preds = %65, %64
  tail call void @llvm.memcpy.p0.p0.i64(ptr noundef nonnull align 8 dereferenceable(48) %0, ptr noundef nonnull align 8 dereferenceable(48) @_ZN12LogSelection7InvalidE, i64 48, i1 false)
  br label %_ZL14parse_internalPcP12outputStream.exit

70:                                               ; preds = %59, %58
  %71 = add nuw nsw i64 %.084.i, 1
  %exitcond.not.i = icmp eq i64 %71, %indvars.iv.i
  br i1 %exitcond.not.i, label %72, label %58, !llvm.loop !16

72:                                               ; preds = %70
  %73 = add nuw nsw i64 %.05685.i, 1
  %exitcond94.not.i = icmp eq i64 %73, %indvars.iv.i
  br i1 %exitcond94.not.i, label %._crit_edge.i, label %.preheader.i, !llvm.loop !17

._crit_edge.i:                                    ; preds = %72
  call void @_ZN12LogSelectionC2EPKN6LogTag4typeEbN8LogLevel4typeE(ptr noundef nonnull align 8 dereferenceable(48) %0, ptr noundef nonnull %4, i1 noundef zeroext %.060.i, i32 noundef %.057.i)
  br label %_ZL14parse_internalPcP12outputStream.exit

_ZL14parse_internalPcP12outputStream.exit:        ; preds = %19, %24, %47, %52, %69, %._crit_edge.i
  call void @llvm.lifetime.end.p0(i64 20, ptr nonnull %4)
  tail call void @_ZN2os4freeEPv(ptr noundef %5) #10
  ret void
}